target datalayout = "e-m:e-p270:32:32-p271:32:32-p272:64:64-i64:64-i128:128-f80:128-n8:16:32:64-S128"
target triple = "x86_64-pc-linux-gnu"

%"class.std::__cxx11::basic_string" = type { %"struct.std::__cxx11::basic_string<char>::_Alloc_hider", i64, %union.anon }
%"struct.std::__cxx11::basic_string<char>::_Alloc_hider" = type { ptr }
%union.anon = type { i64, [8 x i8] }
%"class.std::vector" = type { %"struct.std::_Vector_base" }
%"struct.std::_Vector_base" = type { %"struct.std::_Vector_base<std::__cxx11::basic_string<char>, std::allocator<std::__cxx11::basic_string<char>>>::_Vector_impl" }
%"struct.std::_Vector_base<std::__cxx11::basic_string<char>, std::allocator<std::__cxx11::basic_string<char>>>::_Vector_impl" = type { %"struct.std::_Vector_base<std::__cxx11::basic_string<char>, std::allocator<std::__cxx11::basic_string<char>>>::_Vector_impl_data" }
%"struct.std::_Vector_base<std::__cxx11::basic_string<char>, std::allocator<std::__cxx11::basic_string<char>>>::_Vector_impl_data" = type { ptr, ptr, ptr }
%"class.std::vector.54" = type { %"struct.std::_Vector_base.55" }
%"struct.std::_Vector_base.55" = type { %"struct.std::_Vector_base<double, std::allocator<double>>::_Vector_impl" }
%"struct.std::_Vector_base<double, std::allocator<double>>::_Vector_impl" = type { %"struct.std::_Vector_base<double, std::allocator<double>>::_Vector_impl_data" }
%"struct.std::_Vector_base<double, std::allocator<double>>::_Vector_impl_data" = type { ptr, ptr, ptr }
%"class.std::vector.3" = type { %"struct.std::_Vector_base.4" }
%"struct.std::_Vector_base.4" = type { %"struct.std::_Vector_base<colvar *, std::allocator<colvar *>>::_Vector_impl" }
%"struct.std::_Vector_base<colvar *, std::allocator<colvar *>>::_Vector_impl" = type { %"struct.std::_Vector_base<colvar *, std::allocator<colvar *>>::_Vector_impl_data" }
%"struct.std::_Vector_base<colvar *, std::allocator<colvar *>>::_Vector_impl_data" = type { ptr, ptr, ptr }
%"class.std::vector.8" = type { %"struct.std::_Vector_base.9" }
%"struct.std::_Vector_base.9" = type { %"struct.std::_Vector_base<colvarvalue, std::allocator<colvarvalue>>::_Vector_impl" }
%"struct.std::_Vector_base<colvarvalue, std::allocator<colvarvalue>>::_Vector_impl" = type { %"struct.std::_Vector_base<colvarvalue, std::allocator<colvarvalue>>::_Vector_impl_data" }
%"struct.std::_Vector_base<colvarvalue, std::allocator<colvarvalue>>::_Vector_impl_data" = type { ptr, ptr, ptr }
%"class.std::vector.13" = type { %"struct.std::_Vector_base.14" }
%"struct.std::_Vector_base.14" = type { %"struct.std::_Vector_base<int, std::allocator<int>>::_Vector_impl" }
%"struct.std::_Vector_base<int, std::allocator<int>>::_Vector_impl" = type { %"struct.std::_Vector_base<int, std::allocator<int>>::_Vector_impl_data" }
%"struct.std::_Vector_base<int, std::allocator<int>>::_Vector_impl_data" = type { ptr, ptr, ptr }
%class.colvarparse = type { %class.colvarparams, %"class.std::__cxx11::basic_string", %"class.std::__cxx11::basic_string", %"class.std::__cxx11::list", %"class.std::map.29", %"class.std::__cxx11::list.34", %"class.std::__cxx11::list.34", %"class.std::__cxx11::basic_string" }
%class.colvarparams = type { ptr, %"class.std::map", %"class.std::map.21" }
%"class.std::map" = type { %"class.std::_Rb_tree" }
%"class.std::_Rb_tree" = type { %"struct.std::_Rb_tree<std::__cxx11::basic_string<char>, std::pair<const std::__cxx11::basic_string<char>, const void *>, std::_Select1st<std::pair<const std::__cxx11::basic_string<char>, const void *>>, std::less<std::__cxx11::basic_string<char>>>::_Rb_tree_impl" }
%"struct.std::_Rb_tree<std::__cxx11::basic_string<char>, std::pair<const std::__cxx11::basic_string<char>, const void *>, std::_Select1st<std::pair<const std::__cxx11::basic_string<char>, const void *>>, std::less<std::__cxx11::basic_string<char>>>::_Rb_tree_impl" = type { [8 x i8], %"struct.std::_Rb_tree_header" }
%"struct.std::_Rb_tree_header" = type { %"struct.std::_Rb_tree_node_base", i64 }
%"struct.std::_Rb_tree_node_base" = type { i32, ptr, ptr, ptr }
%"class.std::map.21" = type { %"class.std::_Rb_tree.22" }
%"class.std::_Rb_tree.22" = type { %"struct.std::_Rb_tree<std::__cxx11::basic_string<char>, std::pair<const std::__cxx11::basic_string<char>, const colvarvalue *>, std::_Select1st<std::pair<const std::__cxx11::basic_string<char>, const colvarvalue *>>, std::less<std::__cxx11::basic_string<char>>>::_Rb_tree_impl" }
%"struct.std::_Rb_tree<std::__cxx11::basic_string<char>, std::pair<const std::__cxx11::basic_string<char>, const colvarvalue *>, std::_Select1st<std::pair<const std::__cxx11::basic_string<char>, const colvarvalue *>>, std::less<std::__cxx11::basic_string<char>>>::_Rb_tree_impl" = type { [8 x i8], %"struct.std::_Rb_tree_header" }
%"class.std::__cxx11::list" = type { %"class.std::__cxx11::_List_base" }
%"class.std::__cxx11::_List_base" = type { %"struct.std::__cxx11::_List_base<std::__cxx11::basic_string<char>, std::allocator<std::__cxx11::basic_string<char>>>::_List_impl" }
%"struct.std::__cxx11::_List_base<std::__cxx11::basic_string<char>, std::allocator<std::__cxx11::basic_string<char>>>::_List_impl" = type { %"struct.std::__detail::_List_node_header" }
%"struct.std::__detail::_List_node_header" = type { %"struct.std::__detail::_List_node_base", i64 }
%"struct.std::__detail::_List_node_base" = type { ptr, ptr }
%"class.std::map.29" = type { %"class.std::_Rb_tree.30" }
%"class.std::_Rb_tree.30" = type { %"struct.std::_Rb_tree<std::__cxx11::basic_string<char>, std::pair<const std::__cxx11::basic_string<char>, colvarparse::key_set_mode>, std::_Select1st<std::pair<const std::__cxx11::basic_string<char>, colvarparse::key_set_mode>>, std::less<std::__cxx11::basic_string<char>>>::_Rb_tree_impl" }
%"struct.std::_Rb_tree<std::__cxx11::basic_string<char>, std::pair<const std::__cxx11::basic_string<char>, colvarparse::key_set_mode>, std::_Select1st<std::pair<const std::__cxx11::basic_string<char>, colvarparse::key_set_mode>>, std::less<std::__cxx11::basic_string<char>>>::_Rb_tree_impl" = type { [8 x i8], %"struct.std::_Rb_tree_header" }
%"class.std::__cxx11::list.34" = type { %"class.std::__cxx11::_List_base.35" }
%"class.std::__cxx11::_List_base.35" = type { %"struct.std::__cxx11::_List_base<unsigned long, std::allocator<unsigned long>>::_List_impl" }
%"struct.std::__cxx11::_List_base<unsigned long, std::allocator<unsigned long>>::_List_impl" = type { %"struct.std::__detail::_List_node_header" }
%class.colvardeps = type { ptr, %"class.std::__cxx11::basic_string", i32, %"class.std::vector.39", %"class.std::vector.44", %"class.std::vector.44" }
%"class.std::vector.39" = type { %"struct.std::_Vector_base.40" }
%"struct.std::_Vector_base.40" = type { %"struct.std::_Vector_base<colvardeps::feature_state, std::allocator<colvardeps::feature_state>>::_Vector_impl" }
%"struct.std::_Vector_base<colvardeps::feature_state, std::allocator<colvardeps::feature_state>>::_Vector_impl" = type { %"struct.std::_Vector_base<colvardeps::feature_state, std::allocator<colvardeps::feature_state>>::_Vector_impl_data" }
%"struct.std::_Vector_base<colvardeps::feature_state, std::allocator<colvardeps::feature_state>>::_Vector_impl_data" = type { ptr, ptr, ptr }
%"class.std::vector.44" = type { %"struct.std::_Vector_base.45" }
%"struct.std::_Vector_base.45" = type { %"struct.std::_Vector_base<colvardeps *, std::allocator<colvardeps *>>::_Vector_impl" }
%"struct.std::_Vector_base<colvardeps *, std::allocator<colvardeps *>>::_Vector_impl" = type { %"struct.std::_Vector_base<colvardeps *, std::allocator<colvardeps *>>::_Vector_impl_data" }
%"struct.std::_Vector_base<colvardeps *, std::allocator<colvardeps *>>::_Vector_impl_data" = type { ptr, ptr, ptr }
%class.colvarbias_abf = type { %class.colvarbias.base, %"class.std::vector", i8, i8, i8, i64, i64, i64, i8, i64, %"class.UIestimator::UIestimator", i8, i8, i32, i32, double, i32, double, i8, %"class.std::vector.54", %"class.std::vector.13", %"class.std::vector.13", %"class.std::vector.13", ptr, %"class.std::shared_ptr", %"class.std::shared_ptr.71", %"class.std::shared_ptr.74", %"class.std::shared_ptr", %"class.std::shared_ptr.71", %"class.std::shared_ptr", %"class.std::shared_ptr.74", i8, i64, i64, %"class.std::unique_ptr", %"class.std::shared_ptr.71", %"class.std::unique_ptr", %"class.std::shared_ptr.71", %"class.std::shared_ptr", %"class.std::shared_ptr.71", %"class.std::unique_ptr.79", %"class.std::shared_ptr", %"class.std::shared_ptr.71", %"class.std::shared_ptr", %"class.std::shared_ptr.74", %class.colvarparse, %class.colvardeps }
%class.colvarbias.base = type { ptr, %"class.std::__cxx11::basic_string", %"class.std::__cxx11::basic_string", %"class.std::__cxx11::basic_string", i32, i64, %"class.std::__cxx11::basic_string", %"class.std::vector.3", %"class.std::vector.8", %"class.std::vector.8", %"class.std::vector.8", double, i8, i8, i64, i8, ptr, %"class.std::vector.13" }
%"class.UIestimator::UIestimator" = type <{ %"class.std::vector.49", %"class.std::vector.49", %"class.UIestimator::n_vector", %"class.UIestimator::n_matrix", i32, [4 x i8], %"class.std::vector.54", %"class.std::vector.54", %"class.std::vector.54", %"class.std::vector.54", %"class.std::__cxx11::basic_string", i32, i8, [3 x i8], %"class.std::vector", double, %"class.UIestimator::n_vector.64", %"class.UIestimator::n_vector", %"class.UIestimator::n_vector.70", %"class.UIestimator::n_vector.64", %"class.UIestimator::n_vector", %"class.std::vector.49", %"class.std::vector.49", i8, i8, [6 x i8] }>
%"class.UIestimator::n_matrix" = type { %"class.std::vector.54", %"class.std::vector.54", %"class.std::vector.54", i32, %"class.std::vector.13", i32, i32, i32, %"class.std::vector.59", %"class.std::vector.13" }
%"class.std::vector.59" = type { %"struct.std::_Vector_base.60" }
%"struct.std::_Vector_base.60" = type { %"struct.std::_Vector_base<std::vector<int>, std::allocator<std::vector<int>>>::_Vector_impl" }
%"struct.std::_Vector_base<std::vector<int>, std::allocator<std::vector<int>>>::_Vector_impl" = type { %"struct.std::_Vector_base<std::vector<int>, std::allocator<std::vector<int>>>::_Vector_impl_data" }
%"struct.std::_Vector_base<std::vector<int>, std::allocator<std::vector<int>>>::_Vector_impl_data" = type { ptr, ptr, ptr }
%"class.UIestimator::n_vector.70" = type { %"class.std::vector.54", %"class.std::vector.54", %"class.std::vector.54", i32, %"class.std::vector.13", i32, %"class.std::vector.54", %"class.std::vector.13" }
%"class.UIestimator::n_vector.64" = type { %"class.std::vector.54", %"class.std::vector.54", %"class.std::vector.54", i32, %"class.std::vector.13", i32, %"class.std::vector.65", %"class.std::vector.13" }
%"class.std::vector.65" = type { %"struct.std::_Vector_base.66" }
%"struct.std::_Vector_base.66" = type { %"struct.std::_Vector_base<std::vector<double>, std::allocator<std::vector<double>>>::_Vector_impl" }
%"struct.std::_Vector_base<std::vector<double>, std::allocator<std::vector<double>>>::_Vector_impl" = type { %"struct.std::_Vector_base<std::vector<double>, std::allocator<std::vector<double>>>::_Vector_impl_data" }
%"struct.std::_Vector_base<std::vector<double>, std::allocator<std::vector<double>>>::_Vector_impl_data" = type { ptr, ptr, ptr }
%"class.UIestimator::n_vector" = type { %"class.std::vector.54", %"class.std::vector.54", %"class.std::vector.54", i32, %"class.std::vector.13", i32, %"class.std::vector.13", %"class.std::vector.13" }
%"class.std::vector.49" = type { %"struct.std::_Vector_base.50" }
%"struct.std::_Vector_base.50" = type { %"struct.std::_Vector_base<UIestimator::n_vector<double>, std::allocator<UIestimator::n_vector<double>>>::_Vector_impl" }
%"struct.std::_Vector_base<UIestimator::n_vector<double>, std::allocator<UIestimator::n_vector<double>>>::_Vector_impl" = type { %"struct.std::_Vector_base<UIestimator::n_vector<double>, std::allocator<UIestimator::n_vector<double>>>::_Vector_impl_data" }
%"struct.std::_Vector_base<UIestimator::n_vector<double>, std::allocator<UIestimator::n_vector<double>>>::_Vector_impl_data" = type { ptr, ptr, ptr }
%"class.std::unique_ptr" = type { %"struct.std::__uniq_ptr_data" }
%"struct.std::__uniq_ptr_data" = type { %"class.std::__uniq_ptr_impl" }
%"class.std::__uniq_ptr_impl" = type { %"class.std::tuple" }
%"class.std::tuple" = type { %"struct.std::_Tuple_impl" }
%"struct.std::_Tuple_impl" = type { %"struct.std::_Head_base.78" }
%"struct.std::_Head_base.78" = type { ptr }
%"class.std::unique_ptr.79" = type { %"struct.std::__uniq_ptr_data.80" }
%"struct.std::__uniq_ptr_data.80" = type { %"class.std::__uniq_ptr_impl.81" }
%"class.std::__uniq_ptr_impl.81" = type { %"class.std::tuple.82" }
%"class.std::tuple.82" = type { %"struct.std::_Tuple_impl.83" }
%"struct.std::_Tuple_impl.83" = type { %"struct.std::_Head_base.86" }
%"struct.std::_Head_base.86" = type { ptr }
%"class.std::shared_ptr.71" = type { %"class.std::__shared_ptr.72" }
%"class.std::__shared_ptr.72" = type { ptr, %"class.std::__shared_count" }
%"class.std::__shared_count" = type { ptr }
%"class.std::shared_ptr" = type { %"class.std::__shared_ptr" }
%"class.std::__shared_ptr" = type { ptr, %"class.std::__shared_count" }
%"class.std::shared_ptr.74" = type { %"class.std::__shared_ptr.75" }
%"class.std::__shared_ptr.75" = type { ptr, %"class.std::__shared_count" }

; Function Attrs: mustprogress nounwind uwtable
define noundef double @_ZN14colvarbias_abf16smoothing_factorEd(ptr noundef nonnull align 8 dereferenceable(2232) %0, double noundef %1) #1 align 2 {
  %3 = alloca ptr, align 8
  %4 = alloca double, align 8
  %5 = alloca double, align 8
  store ptr %0, ptr %3, align 8, !tbaa !21
  store double %1, ptr %4, align 8, !tbaa !118
  %6 = load ptr, ptr %3, align 8
  call void @llvm.lifetime.start.p0(i64 8, ptr %5) #6
  store double 1.000000e+00, ptr %5, align 8, !tbaa !118
  %7 = load double, ptr %4, align 8, !tbaa !118
  %8 = getelementptr inbounds nuw %class.colvarbias_abf, ptr %6, i32 0, i32 5
  %9 = load i64, ptr %8, align 8, !tbaa !145
  %10 = uitofp i64 %9 to double
  %11 = fcmp olt double %7, %10
  br i1 %11, label %12, label %33

12:                                               ; preds = %2
  %13 = load double, ptr %4, align 8, !tbaa !118
  %14 = getelementptr inbounds nuw %class.colvarbias_abf, ptr %6, i32 0, i32 6
  %15 = load i64, ptr %14, align 8, !tbaa !146
  %16 = uitofp i64 %15 to double
  %17 = fcmp olt double %13, %16
  br i1 %17, label %18, label %19

18:                                               ; preds = %12
  store double 0.000000e+00, ptr %5, align 8, !tbaa !118
  br label %32

19:                                               ; preds = %12
  %20 = load double, ptr %4, align 8, !tbaa !118
  %21 = getelementptr inbounds nuw %class.colvarbias_abf, ptr %6, i32 0, i32 6
  %22 = load i64, ptr %21, align 8, !tbaa !146
  %23 = uitofp i64 %22 to double
  %24 = fsub double %20, %23
  %25 = getelementptr inbounds nuw %class.colvarbias_abf, ptr %6, i32 0, i32 5
  %26 = load i64, ptr %25, align 8, !tbaa !145
  %27 = getelementptr inbounds nuw %class.colvarbias_abf, ptr %6, i32 0, i32 6
  %28 = load i64, ptr %27, align 8, !tbaa !146
  %29 = sub i64 %26, %28
  %30 = uitofp i64 %29 to double
  %31 = fdiv double %24, %30
  store double %31, ptr %5, align 8, !tbaa !118
  br label %32

32:                                               ; preds = %19, %18
  br label %33

33:                                               ; preds = %32, %2
  %34 = load double, ptr %5, align 8, !tbaa !118
  call void @llvm.lifetime.end.p0(i64 8, ptr %5) #6
  ret double %34
}