; Function Attrs: mustprogress nofree norecurse nosync nounwind willreturn memory(argmem: read) uwtable
define noundef double @_ZN14colvarbias_abf16smoothing_factorEd(ptr noundef nonnull readonly align 8 captures(none) dereferenceable(2232) %0, double noundef %1) local_unnamed_addr #7 align 2 {
  %3 = getelementptr inbounds nuw i8, ptr %0, i64 344
  %4 = load i64, ptr %3, align 8, !tbaa !293
  %5 = uitofp i64 %4 to double
  %6 = fcmp olt double %1, %5
  br i1 %6, label %7, label %17

7:                                                ; preds = %2
  %8 = getelementptr inbounds nuw i8, ptr %0, i64 352
  %9 = load i64, ptr %8, align 8, !tbaa !294
  %10 = uitofp i64 %9 to double
  %11 = fcmp olt double %1, %10
  br i1 %11, label %17, label %12

12:                                               ; preds = %7
  %13 = fsub double %1, %10
  %14 = sub i64 %4, %9
  %15 = uitofp i64 %14 to double
  %16 = fdiv double %13, %15
  br label %17

17:                                               ; preds = %7, %12, %2
  %.0 = phi double [ %16, %12 ], [ 1.000000e+00, %2 ], [ 0.000000e+00, %7 ]
  ret double %.0
}